; Function Attrs: mustprogress uwtable
define hidden void @_ZN2lp10lar_solver23set_lower_bound_witnessEjPN18dependency_managerIN25scoped_dependency_managerIjE6configEE10dependencyE(ptr noundef nonnull align 8 dereferenceable(2128) %0, i32 noundef %1, ptr noundef %2) local_unnamed_addr #5 align 2 personality ptr @__gxx_personality_v0 {
.noexc:
  %.sroa.7 = alloca [28 x i8], align 4
  %3 = getelementptr inbounds nuw i8, ptr %0, i64 8
  call void @llvm.lifetime.start.p0(i64 28, ptr nonnull %.sroa.7)
  %4 = getelementptr inbounds nuw i8, ptr %0, i64 1320
  %5 = load ptr, ptr %4, align 8, !tbaa !264
  %6 = zext i32 %1 to i64
  %7 = getelementptr inbounds nuw %"class.lp::column", ptr %5, i64 %6
  %.sroa.7.24..sroa_idx = getelementptr inbounds nuw i8, ptr %.sroa.7, i64 4
  call void @llvm.memcpy.p0.p0.i64(ptr noundef nonnull align 4 dereferenceable(24) %.sroa.7.24..sroa_idx, ptr noundef nonnull align 8 dereferenceable(24) %7, i64 24, i1 false), !tbaa.struct !528
  %8 = getelementptr inbounds nuw i8, ptr %0, i64 24
  %9 = tail call noundef ptr @_ZN6region8allocateEm(ptr noundef nonnull align 8 dereferenceable(40) %8, i64 noundef 48)
  store ptr getelementptr inbounds nuw inrange(-16, 24) (i8, ptr @_ZTV18vector_value_trailIN2lp6columnELb0EE, i64 16), ptr %9, align 8, !tbaa !64
  %10 = getelementptr inbounds nuw i8, ptr %9, i64 8
  store ptr %4, ptr %10, align 8
  %.sroa.6.8..sroa_idx = getelementptr inbounds nuw i8, ptr %9, i64 16
  store i32 %1, ptr %.sroa.6.8..sroa_idx, align 8
  %.sroa.7.8..sroa_idx = getelementptr inbounds nuw i8, ptr %9, i64 20
  call void @llvm.memcpy.p0.p0.i64(ptr noundef nonnull align 4 dereferenceable(28) %.sroa.7.8..sroa_idx, ptr noundef nonnull align 4 dereferenceable(28) %.sroa.7, i64 28, i1 false)
  %11 = load ptr, ptr %3, align 8, !tbaa !282
  %12 = icmp eq ptr %11, null
  br i1 %12, label %.noexc5, label %13

13:                                               ; preds = %.noexc
  %14 = getelementptr inbounds i8, ptr %11, i64 -4
  %15 = load i32, ptr %14, align 4, !tbaa !261
  %16 = getelementptr inbounds i8, ptr %11, i64 -8
  %17 = load i32, ptr %16, align 4, !tbaa !261
  %18 = icmp eq i32 %15, %17
  br i1 %18, label %.noexc5, label %19

.noexc5:                                          ; preds = %13, %.noexc
  tail call void @_ZN6vectorIP5trailLb0EjE13expand_vectorEv(ptr noundef nonnull align 8 dereferenceable(56) %3)
  %.pre.i.i = load ptr, ptr %3, align 8, !tbaa !282
  %.phi.trans.insert.i.i = getelementptr inbounds i8, ptr %.pre.i.i, i64 -4
  %.pre2.i.i = load i32, ptr %.phi.trans.insert.i.i, align 4, !tbaa !261
  br label %19

19:                                               ; preds = %.noexc5, %13
  %20 = phi i32 [ %.pre2.i.i, %.noexc5 ], [ %15, %13 ]
  %21 = phi ptr [ %.pre.i.i, %.noexc5 ], [ %11, %13 ]
  %22 = getelementptr inbounds i8, ptr %21, i64 -4
  %23 = zext i32 %20 to i64
  %24 = getelementptr inbounds nuw ptr, ptr %21, i64 %23
  store ptr %9, ptr %24, align 8, !tbaa !402
  %25 = add i32 %20, 1
  store i32 %25, ptr %22, align 4, !tbaa !261
  call void @llvm.lifetime.end.p0(i64 28, ptr nonnull %.sroa.7)
  %26 = load ptr, ptr %4, align 8, !tbaa !264
  %27 = getelementptr inbounds nuw %"class.lp::column", ptr %26, i64 %6
  store ptr %2, ptr %27, align 8, !tbaa !384
  ret void
}